; ModuleID = 'bench/opencv/original/reader.cpp.ll'
source_filename = "bench/opencv/original/reader.cpp.ll"
target datalayout = "e-m:e-p270:32:32-p271:32:32-p272:64:64-i64:64-i128:128-f80:128-n8:16:32:64-S128"
target triple = "x86_64-pc-linux-gnu"

%"class.std::vector" = type { %"struct.std::_Vector_base" }
%"struct.std::_Vector_base" = type { %"struct.std::_Vector_base<zxing::Ref<zxing::Result>, std::allocator<zxing::Ref<zxing::Result>>>::_Vector_impl" }
%"struct.std::_Vector_base<zxing::Ref<zxing::Result>, std::allocator<zxing::Ref<zxing::Result>>>::_Vector_impl" = type { %"struct.std::_Vector_base<zxing::Ref<zxing::Result>, std::allocator<zxing::Ref<zxing::Result>>>::_Vector_impl_data" }
%"struct.std::_Vector_base<zxing::Ref<zxing::Result>, std::allocator<zxing::Ref<zxing::Result>>>::_Vector_impl_data" = type { ptr, ptr, ptr }
%"class.zxing::Ref" = type { ptr }
%"class.std::__cxx11::basic_string" = type { %"struct.std::__cxx11::basic_string<char>::_Alloc_hider", i64, %union.anon }
%"struct.std::__cxx11::basic_string<char>::_Alloc_hider" = type { ptr }
%union.anon = type { i64, [8 x i8] }
%"class.std::allocator.0" = type { i8 }

$_ZTSN5zxing7CountedE = comdat any

$_ZTIN5zxing7CountedE = comdat any

@.str = private unnamed_addr constant [7 x i8] c"unknow\00", align 1
@_ZTVN5zxing6ReaderE = hidden unnamed_addr constant { [10 x ptr] } { [10 x ptr] [ptr null, ptr @_ZTIN5zxing6ReaderE, ptr @_ZN5zxing6ReaderD2Ev, ptr @_ZN5zxing6ReaderD0Ev, ptr @_ZN5zxing6Reader6decodeENS_3RefINS_12BinaryBitmapEEE, ptr @__cxa_pure_virtual, ptr @_ZN5zxing6Reader4nameB5cxx11Ev, ptr @_ZN5zxing6Reader11getDecodeIDEv, ptr @_ZN5zxing6Reader11setDecodeIDEj, ptr @_ZN5zxing6Reader14getPossibleFixEv] }, align 8
@_ZTVN10__cxxabiv120__si_class_type_infoE = external global [0 x ptr]
@_ZTSN5zxing6ReaderE = hidden constant [16 x i8] c"N5zxing6ReaderE\00", align 1
@_ZTVN10__cxxabiv117__class_type_infoE = external global [0 x ptr]
@_ZTSN5zxing7CountedE = linkonce_odr hidden constant [17 x i8] c"N5zxing7CountedE\00", comdat, align 1
@_ZTIN5zxing7CountedE = linkonce_odr hidden constant { ptr, ptr } { ptr getelementptr inbounds (ptr, ptr @_ZTVN10__cxxabiv117__class_type_infoE, i64 2), ptr @_ZTSN5zxing7CountedE }, comdat, align 8
@_ZTIN5zxing6ReaderE = hidden constant { ptr, ptr, ptr } { ptr getelementptr inbounds (ptr, ptr @_ZTVN10__cxxabiv120__si_class_type_infoE, i64 2), ptr @_ZTSN5zxing6ReaderE, ptr @_ZTIN5zxing7CountedE }, align 8

@_ZN5zxing6ReaderD1Ev = hidden unnamed_addr alias void (ptr), ptr @_ZN5zxing6ReaderD2Ev

; Function Attrs: mustprogress nofree norecurse nosync nounwind willreturn memory(none) uwtable
define hidden void @_ZN5zxing6ReaderD2Ev(ptr nocapture nonnull readnone align 8 %0) unnamed_addr #0 align 2 {
  ret void
}

; Function Attrs: mustprogress noreturn nounwind memory(inaccessiblemem: write) uwtable
define hidden void @_ZN5zxing6ReaderD0Ev(ptr nocapture nonnull readnone align 8 %0) unnamed_addr #1 align 2 {
  tail call void @llvm.trap() #6
  unreachable
}

; Function Attrs: cold noreturn nounwind memory(inaccessiblemem: write)
declare void @llvm.trap() #2

; Function Attrs: mustprogress uwtable
define hidden void @_ZN5zxing6Reader6decodeENS_3RefINS_12BinaryBitmapEEE(ptr dead_on_unwind noalias writable sret(%"class.std::vector") align 8 %0, ptr noundef nonnull align 8 dereferenceable(12) %1, ptr nocapture noundef readonly %2) unnamed_addr #3 align 2 personality ptr @__gxx_personality_v0 {
  %4 = alloca %"class.zxing::Ref", align 8
  %5 = load ptr, ptr %2, align 8
  %.not.i.i = icmp eq ptr %5, null
  br i1 %.not.i.i, label %_ZN5zxing3RefINS_12BinaryBitmapEEC2ERKS2_.exit, label %6

6:                                                ; preds = %3
  %7 = getelementptr inbounds i8, ptr %5, i64 8
  %8 = load i32, ptr %7, align 8
  %9 = add i32 %8, 1
  store i32 %9, ptr %7, align 8
  br label %_ZN5zxing3RefINS_12BinaryBitmapEEC2ERKS2_.exit

_ZN5zxing3RefINS_12BinaryBitmapEEC2ERKS2_.exit:   ; preds = %6, %3
  store ptr %5, ptr %4, align 8
  %10 = load ptr, ptr %1, align 8
  %11 = getelementptr inbounds i8, ptr %10, i64 24
  %12 = load ptr, ptr %11, align 8
  invoke void %12(ptr dead_on_unwind writable sret(%"class.std::vector") align 8 %0, ptr noundef nonnull align 8 dereferenceable(12) %1, ptr noundef nonnull %4, i8 0)
          to label %13 unwind label %24

13:                                               ; preds = %_ZN5zxing3RefINS_12BinaryBitmapEEC2ERKS2_.exit
  %14 = load ptr, ptr %4, align 8
  %.not.i = icmp eq ptr %14, null
  br i1 %.not.i, label %_ZN5zxing3RefINS_12BinaryBitmapEED2Ev.exit, label %15

15:                                               ; preds = %13
  %16 = getelementptr inbounds i8, ptr %14, i64 8
  %17 = load i32, ptr %16, align 8
  %18 = add i32 %17, -1
  store i32 %18, ptr %16, align 8
  %19 = icmp eq i32 %18, 0
  br i1 %19, label %20, label %_ZN5zxing3RefINS_12BinaryBitmapEED2Ev.exit

20:                                               ; preds = %15
  store i32 -559026175, ptr %16, align 8
  %21 = load ptr, ptr %14, align 8
  %22 = getelementptr inbounds i8, ptr %21, i64 8
  %23 = load ptr, ptr %22, align 8
  call void %23(ptr noundef nonnull align 8 dereferenceable(12) %14) #7
  br label %_ZN5zxing3RefINS_12BinaryBitmapEED2Ev.exit

_ZN5zxing3RefINS_12BinaryBitmapEED2Ev.exit:       ; preds = %13, %15, %20
  ret void

24:                                               ; preds = %_ZN5zxing3RefINS_12BinaryBitmapEEC2ERKS2_.exit
  %25 = landingpad { ptr, i32 }
          cleanup
  %26 = load ptr, ptr %4, align 8
  %.not.i2 = icmp eq ptr %26, null
  br i1 %.not.i2, label %_ZN5zxing3RefINS_12BinaryBitmapEED2Ev.exit3, label %27

27:                                               ; preds = %24
  %28 = getelementptr inbounds i8, ptr %26, i64 8
  %29 = load i32, ptr %28, align 8
  %30 = add i32 %29, -1
  store i32 %30, ptr %28, align 8
  %31 = icmp eq i32 %30, 0
  br i1 %31, label %32, label %_ZN5zxing3RefINS_12BinaryBitmapEED2Ev.exit3

32:                                               ; preds = %27
  store i32 -559026175, ptr %28, align 8
  %33 = load ptr, ptr %26, align 8
  %34 = getelementptr inbounds i8, ptr %33, i64 8
  %35 = load ptr, ptr %34, align 8
  call void %35(ptr noundef nonnull align 8 dereferenceable(12) %26) #7
  br label %_ZN5zxing3RefINS_12BinaryBitmapEED2Ev.exit3

_ZN5zxing3RefINS_12BinaryBitmapEED2Ev.exit3:      ; preds = %24, %27, %32
  resume { ptr, i32 } %25
}

declare i32 @__gxx_personality_v0(...)

; Function Attrs: mustprogress nofree norecurse nosync nounwind willreturn memory(none) uwtable
define hidden noundef i32 @_ZN5zxing6Reader11getDecodeIDEv(ptr nocapture nonnull readnone align 8 %0) unnamed_addr #0 align 2 {
  ret i32 0
}

; Function Attrs: mustprogress nofree norecurse nosync nounwind willreturn memory(none) uwtable
define hidden void @_ZN5zxing6Reader11setDecodeIDEj(ptr nocapture nonnull readnone align 8 %0, i32 %1) unnamed_addr #0 align 2 {
  ret void
}

; Function Attrs: mustprogress nofree norecurse nosync nounwind willreturn memory(none) uwtable
define hidden noundef float @_ZN5zxing6Reader14getPossibleFixEv(ptr nocapture nonnull readnone align 8 %0) unnamed_addr #0 align 2 {
  ret float 0.000000e+00
}

; Function Attrs: mustprogress uwtable
define hidden void @_ZN5zxing6Reader4nameB5cxx11Ev(ptr dead_on_unwind noalias writable sret(%"class.std::__cxx11::basic_string") align 8 %0, ptr nocapture nonnull readnone align 8 %1) unnamed_addr #3 align 2 personality ptr @__gxx_personality_v0 {
  %3 = alloca %"class.std::allocator.0", align 1
  call void @_ZNSaIcEC1Ev(ptr noundef nonnull align 1 dereferenceable(1) %3) #7
  invoke void @_ZNSt7__cxx1112basic_stringIcSt11char_traitsIcESaIcEEC1EPKcRKS3_(ptr noundef nonnull align 8 dereferenceable(32) %0, ptr noundef nonnull @.str, ptr noundef nonnull align 1 dereferenceable(1) %3)
          to label %4 unwind label %5

4:                                                ; preds = %2
  call void @_ZNSaIcED1Ev(ptr noundef nonnull align 1 dereferenceable(1) %3) #7
  ret void

5:                                                ; preds = %2
  %6 = landingpad { ptr, i32 }
          cleanup
  call void @_ZNSaIcED1Ev(ptr noundef nonnull align 1 dereferenceable(1) %3) #7
  resume { ptr, i32 } %6
}

; Function Attrs: nounwind
declare void @_ZNSaIcEC1Ev(ptr noundef nonnull align 1 dereferenceable(1)) unnamed_addr #4

declare void @_ZNSt7__cxx1112basic_stringIcSt11char_traitsIcESaIcEEC1EPKcRKS3_(ptr noundef nonnull align 8 dereferenceable(32), ptr noundef, ptr noundef nonnull align 1 dereferenceable(1)) unnamed_addr #5

; Function Attrs: nounwind
declare void @_ZNSaIcED1Ev(ptr noundef nonnull align 1 dereferenceable(1)) unnamed_addr #4

declare void @__cxa_pure_virtual() unnamed_addr


!llvm.module.flags = !{!0, !1, !2, !3}

!0 = !{i32 1, !"wchar_size", i32 4}
!1 = !{i32 8, !"PIC Level", i32 2}
!2 = !{i32 7, !"uwtable", i32 2}
!3 = !{i32 7, !"frame-pointer", i32 2}
